target datalayout = "e-m:e-p270:32:32-p271:32:32-p272:64:64-i64:64-i128:128-f80:128-n8:16:32:64-S128"
target triple = "x86_64-pc-linux-gnu"

%struct.H5S_select_class_t = type { i32, ptr, ptr, ptr, ptr, ptr, ptr, ptr, ptr, ptr, ptr, ptr, ptr, ptr, ptr, ptr, ptr, ptr, ptr, ptr, ptr }
%struct.H5S_t = type { %struct.H5S_extent_t, %struct.H5S_select_t }
%struct.H5S_extent_t = type { %struct.H5O_shared_t, i32, i32, i64, i32, ptr, ptr }
%struct.H5O_shared_t = type { i32, ptr, i32, %union.anon }
%union.anon = type { %struct.H5O_mesg_loc_t }
%struct.H5O_mesg_loc_t = type { i32, i64 }
%struct.H5S_select_t = type { ptr, i8, [32 x i64], i64, %union.anon.0 }
%union.anon.0 = type { ptr }
%struct.H5S_sel_iter_t = type { ptr, i32, [32 x i64], [32 x i64], i64, i64, i32, %union.anon.1 }
%union.anon.1 = type { %struct.H5S_hyper_iter_t }
%struct.H5S_hyper_iter_t = type { [32 x i64], [32 x i64], i32, i8, [32 x %struct.H5S_hyper_dim_t], [32 x i64], [32 x i64], [32 x i8], [32 x i64], ptr, [32 x ptr] }
%struct.H5S_hyper_dim_t = type { i64, i64, i64, i64 }
%struct.H5S_sel_iter_class_t = type { i32, ptr, ptr, ptr, ptr, ptr, ptr, ptr, ptr }

@H5_libinit_g = external global i8, align 1
@H5_libterm_g = external global i8, align 1
@.str.1 = private unnamed_addr constant [103 x i8] c"generated/home/dtcxzyw/WorkSpace/Projects/compilers/llvm-opt-benchmark/bench/hdf5/hdf5/src/H5Sselect.c\00", align 1
@H5E_FUNC_g = external global i64, align 8
@H5E_CANTINIT_g = external global i64, align 8
@.str.2 = private unnamed_addr constant [30 x i8] c"library initialization failed\00", align 1
@H5E_CANTSET_g = external global i64, align 8
@.str.3 = private unnamed_addr constant [22 x i8] c"can't set API context\00", align 1
@H5E_DATASPACE_g = external global i64, align 8
@.str.4 = private unnamed_addr constant [16 x i8] c"not a dataspace\00", align 1
@H5E_BADTYPE_g = external global i64, align 8
@H5E_CANTRELEASE_g = external global i64, align 8
@.str.88 = private unnamed_addr constant [35 x i8] c"not a dataspace selection iterator\00", align 1
@__func__.H5Ssel_iter_reset = private unnamed_addr constant [18 x i8] c"H5Ssel_iter_reset\00", align 1
@.str.96 = private unnamed_addr constant [60 x i8] c"problem releasing a selection iterator's type-specific info\00", align 1
@.str.97 = private unnamed_addr constant [43 x i8] c"unable to re-initialize selection iterator\00", align 1

; Function Attrs: nounwind uwtable
define i32 @H5S_select_iter_init(ptr noundef %0, ptr noundef %1, i64 noundef %2, i32 noundef %3) #0 {
  %5 = alloca ptr, align 8
  %6 = alloca ptr, align 8
  %7 = alloca i64, align 8
  %8 = alloca i32, align 4
  %9 = alloca i32, align 4
  store ptr %0, ptr %5, align 8
  store ptr %1, ptr %6, align 8
  store i64 %2, ptr %7, align 8
  store i32 %3, ptr %8, align 4
  store i32 -1, ptr %9, align 4
  %10 = load ptr, ptr %6, align 8
  %11 = getelementptr inbounds %struct.H5S_t, ptr %10, i32 0, i32 0
  %12 = getelementptr inbounds %struct.H5S_extent_t, ptr %11, i32 0, i32 4
  %13 = load i32, ptr %12, align 8
  %14 = load ptr, ptr %5, align 8
  %15 = getelementptr inbounds %struct.H5S_sel_iter_t, ptr %14, i32 0, i32 1
  store i32 %13, ptr %15, align 8
  %16 = load ptr, ptr %5, align 8
  %17 = getelementptr inbounds %struct.H5S_sel_iter_t, ptr %16, i32 0, i32 1
  %18 = load i32, ptr %17, align 8
  %19 = icmp ugt i32 %18, 0
  br i1 %19, label %20, label %47

20:                                               ; preds = %4
  %21 = load ptr, ptr %5, align 8
  %22 = getelementptr inbounds %struct.H5S_sel_iter_t, ptr %21, i32 0, i32 2
  %23 = getelementptr inbounds [32 x i64], ptr %22, i64 0, i64 0
  %24 = load ptr, ptr %6, align 8
  %25 = getelementptr inbounds %struct.H5S_t, ptr %24, i32 0, i32 0
  %26 = getelementptr inbounds %struct.H5S_extent_t, ptr %25, i32 0, i32 5
  %27 = load ptr, ptr %26, align 8
  %28 = load ptr, ptr %6, align 8
  %29 = getelementptr inbounds %struct.H5S_t, ptr %28, i32 0, i32 0
  %30 = getelementptr inbounds %struct.H5S_extent_t, ptr %29, i32 0, i32 4
  %31 = load i32, ptr %30, align 8
  %32 = zext i32 %31 to i64
  %33 = mul i64 8, %32
  call void @llvm.memcpy.p0.p0.i64(ptr align 8 %23, ptr align 8 %27, i64 %33, i1 false)
  %34 = load ptr, ptr %5, align 8
  %35 = getelementptr inbounds %struct.H5S_sel_iter_t, ptr %34, i32 0, i32 3
  %36 = getelementptr inbounds [32 x i64], ptr %35, i64 0, i64 0
  %37 = load ptr, ptr %6, align 8
  %38 = getelementptr inbounds %struct.H5S_t, ptr %37, i32 0, i32 1
  %39 = getelementptr inbounds %struct.H5S_select_t, ptr %38, i32 0, i32 2
  %40 = getelementptr inbounds [32 x i64], ptr %39, i64 0, i64 0
  %41 = load ptr, ptr %6, align 8
  %42 = getelementptr inbounds %struct.H5S_t, ptr %41, i32 0, i32 0
  %43 = getelementptr inbounds %struct.H5S_extent_t, ptr %42, i32 0, i32 4
  %44 = load i32, ptr %43, align 8
  %45 = zext i32 %44 to i64
  %46 = mul i64 8, %45
  call void @llvm.memcpy.p0.p0.i64(ptr align 8 %36, ptr align 8 %40, i64 %46, i1 false)
  br label %47

47:                                               ; preds = %20, %4
  %48 = load i64, ptr %7, align 8
  %49 = load ptr, ptr %5, align 8
  %50 = getelementptr inbounds %struct.H5S_sel_iter_t, ptr %49, i32 0, i32 5
  store i64 %48, ptr %50, align 8
  %51 = load ptr, ptr %6, align 8
  %52 = getelementptr inbounds %struct.H5S_t, ptr %51, i32 0, i32 1
  %53 = getelementptr inbounds %struct.H5S_select_t, ptr %52, i32 0, i32 3
  %54 = load i64, ptr %53, align 8
  %55 = load ptr, ptr %5, align 8
  %56 = getelementptr inbounds %struct.H5S_sel_iter_t, ptr %55, i32 0, i32 4
  store i64 %54, ptr %56, align 8
  %57 = load i32, ptr %8, align 4
  %58 = load ptr, ptr %5, align 8
  %59 = getelementptr inbounds %struct.H5S_sel_iter_t, ptr %58, i32 0, i32 6
  store i32 %57, ptr %59, align 8
  %60 = load ptr, ptr %6, align 8
  %61 = getelementptr inbounds %struct.H5S_t, ptr %60, i32 0, i32 1
  %62 = getelementptr inbounds %struct.H5S_select_t, ptr %61, i32 0, i32 0
  %63 = load ptr, ptr %62, align 8
  %64 = getelementptr inbounds %struct.H5S_select_class_t, ptr %63, i32 0, i32 20
  %65 = load ptr, ptr %64, align 8
  %66 = load ptr, ptr %6, align 8
  %67 = load ptr, ptr %5, align 8
  %68 = call i32 %65(ptr noundef %66, ptr noundef %67)
  store i32 %68, ptr %9, align 4
  %69 = load i32, ptr %9, align 4
  ret i32 %69
}

; Function Attrs: nounwind uwtable
define i32 @H5Ssel_iter_reset(i64 noundef %0, i64 noundef %1) #0 {
  %3 = alloca i64, align 8
  %4 = alloca i64, align 8
  %5 = alloca ptr, align 8
  %6 = alloca ptr, align 8
  %7 = alloca i32, align 4
  %8 = alloca i8, align 1
  %9 = alloca i8, align 1
  store i64 %0, ptr %3, align 8
  store i64 %1, ptr %4, align 8
  store i32 0, ptr %7, align 4
  store i8 0, ptr %8, align 1
  store i8 0, ptr %9, align 1
  %10 = load i8, ptr @H5_libinit_g, align 1
  %11 = trunc i8 %10 to i1
  br i1 %11, label %16, label %12

12:                                               ; preds = %2
  %13 = load i8, ptr @H5_libterm_g, align 1
  %14 = trunc i8 %13 to i1
  %15 = xor i1 %14, true
  br label %16

16:                                               ; preds = %12, %2
  %17 = phi i1 [ false, %2 ], [ %15, %12 ]
  %18 = xor i1 %17, true
  %19 = xor i1 %18, true
  %20 = zext i1 %19 to i32
  %21 = sext i32 %20 to i64
  %22 = icmp ne i64 %21, 0
  br i1 %22, label %23, label %47

23:                                               ; preds = %16
  %24 = call i32 @H5_init_library()
  %25 = icmp slt i32 %24, 0
  %26 = xor i1 %25, true
  %27 = xor i1 %26, true
  %28 = zext i1 %27 to i32
  %29 = sext i32 %28 to i64
  %30 = icmp ne i64 %29, 0
  br i1 %30, label %31, label %46

31:                                               ; preds = %23
  br label %32

32:                                               ; preds = %31
  br label %33

33:                                               ; preds = %32
  br label %34

34:                                               ; preds = %33
  %35 = load i64, ptr @H5E_FUNC_g, align 8
  %36 = load i64, ptr @H5E_CANTINIT_g, align 8
  %37 = call i32 (ptr, ptr, i32, i64, i64, ptr, ...) @H5E_printf_stack(ptr noundef @.str.1, ptr noundef @__func__.H5Ssel_iter_reset, i32 noundef 3022, i64 noundef %35, i64 noundef %36, ptr noundef @.str.2)
  br label %38

38:                                               ; preds = %34
  store i8 1, ptr %9, align 1
  %39 = load i8, ptr %9, align 1
  %40 = trunc i8 %39 to i1
  %41 = zext i1 %40 to i8
  store i8 %41, ptr %9, align 1
  br label %42

42:                                               ; preds = %38
  br label %43

43:                                               ; preds = %42
  store i32 -1, ptr %7, align 4
  br label %161

44:                                               ; No predecessors!
  br label %45

45:                                               ; preds = %44
  br label %46

46:                                               ; preds = %45, %23
  br label %47

47:                                               ; preds = %46, %16
  %48 = call i32 @H5CX_push()
  %49 = icmp slt i32 %48, 0
  %50 = xor i1 %49, true
  %51 = xor i1 %50, true
  %52 = zext i1 %51 to i32
  %53 = sext i32 %52 to i64
  %54 = icmp ne i64 %53, 0
  br i1 %54, label %55, label %70

55:                                               ; preds = %47
  br label %56

56:                                               ; preds = %55
  br label %57

57:                                               ; preds = %56
  br label %58

58:                                               ; preds = %57
  %59 = load i64, ptr @H5E_FUNC_g, align 8
  %60 = load i64, ptr @H5E_CANTSET_g, align 8
  %61 = call i32 (ptr, ptr, i32, i64, i64, ptr, ...) @H5E_printf_stack(ptr noundef @.str.1, ptr noundef @__func__.H5Ssel_iter_reset, i32 noundef 3022, i64 noundef %59, i64 noundef %60, ptr noundef @.str.3)
  br label %62

62:                                               ; preds = %58
  store i8 1, ptr %9, align 1
  %63 = load i8, ptr %9, align 1
  %64 = trunc i8 %63 to i1
  %65 = zext i1 %64 to i8
  store i8 %65, ptr %9, align 1
  br label %66

66:                                               ; preds = %62
  br label %67

67:                                               ; preds = %66
  store i32 -1, ptr %7, align 4
  br label %161

68:                                               ; No predecessors!
  br label %69

69:                                               ; preds = %68
  br label %71

70:                                               ; preds = %47
  store i8 1, ptr %8, align 1
  br label %71

71:                                               ; preds = %70, %69
  %72 = call i32 @H5E_clear_stack()
  %73 = load i64, ptr %3, align 8
  %74 = call ptr @H5I_object_verify(i64 noundef %73, i32 noundef 15)
  store ptr %74, ptr %5, align 8
  %75 = icmp eq ptr null, %74
  br i1 %75, label %76, label %91

76:                                               ; preds = %71
  br label %77

77:                                               ; preds = %76
  br label %78

78:                                               ; preds = %77
  br label %79

79:                                               ; preds = %78
  %80 = load i64, ptr @H5E_DATASPACE_g, align 8
  %81 = load i64, ptr @H5E_BADTYPE_g, align 8
  %82 = call i32 (ptr, ptr, i32, i64, i64, ptr, ...) @H5E_printf_stack(ptr noundef @.str.1, ptr noundef @__func__.H5Ssel_iter_reset, i32 noundef 3026, i64 noundef %80, i64 noundef %81, ptr noundef @.str.88)
  br label %83

83:                                               ; preds = %79
  store i8 1, ptr %9, align 1
  %84 = load i8, ptr %9, align 1
  %85 = trunc i8 %84 to i1
  %86 = zext i1 %85 to i8
  store i8 %86, ptr %9, align 1
  br label %87

87:                                               ; preds = %83
  br label %88

88:                                               ; preds = %87
  store i32 -1, ptr %7, align 4
  br label %161

89:                                               ; No predecessors!
  br label %90

90:                                               ; preds = %89
  br label %91

91:                                               ; preds = %90, %71
  %92 = load i64, ptr %4, align 8
  %93 = call ptr @H5I_object_verify(i64 noundef %92, i32 noundef 4)
  store ptr %93, ptr %6, align 8
  %94 = icmp eq ptr null, %93
  br i1 %94, label %95, label %110

95:                                               ; preds = %91
  br label %96

96:                                               ; preds = %95
  br label %97

97:                                               ; preds = %96
  br label %98

98:                                               ; preds = %97
  %99 = load i64, ptr @H5E_DATASPACE_g, align 8
  %100 = load i64, ptr @H5E_BADTYPE_g, align 8
  %101 = call i32 (ptr, ptr, i32, i64, i64, ptr, ...) @H5E_printf_stack(ptr noundef @.str.1, ptr noundef @__func__.H5Ssel_iter_reset, i32 noundef 3028, i64 noundef %99, i64 noundef %100, ptr noundef @.str.4)
  br label %102

102:                                              ; preds = %98
  store i8 1, ptr %9, align 1
  %103 = load i8, ptr %9, align 1
  %104 = trunc i8 %103 to i1
  %105 = zext i1 %104 to i8
  store i8 %105, ptr %9, align 1
  br label %106

106:                                              ; preds = %102
  br label %107

107:                                              ; preds = %106
  store i32 -1, ptr %7, align 4
  br label %161

108:                                              ; No predecessors!
  br label %109

109:                                              ; preds = %108
  br label %110

110:                                              ; preds = %109, %91
  %111 = load ptr, ptr %5, align 8
  %112 = getelementptr inbounds %struct.H5S_sel_iter_t, ptr %111, i32 0, i32 0
  %113 = load ptr, ptr %112, align 8
  %114 = getelementptr inbounds %struct.H5S_sel_iter_class_t, ptr %113, i32 0, i32 8
  %115 = load ptr, ptr %114, align 8
  %116 = load ptr, ptr %5, align 8
  %117 = call i32 %115(ptr noundef %116)
  %118 = icmp slt i32 %117, 0
  br i1 %118, label %119, label %134

119:                                              ; preds = %110
  br label %120

120:                                              ; preds = %119
  br label %121

121:                                              ; preds = %120
  br label %122

122:                                              ; preds = %121
  %123 = load i64, ptr @H5E_DATASPACE_g, align 8
  %124 = load i64, ptr @H5E_CANTRELEASE_g, align 8
  %125 = call i32 (ptr, ptr, i32, i64, i64, ptr, ...) @H5E_printf_stack(ptr noundef @.str.1, ptr noundef @__func__.H5Ssel_iter_reset, i32 noundef 3033, i64 noundef %123, i64 noundef %124, ptr noundef @.str.96)
  br label %126

126:                                              ; preds = %122
  store i8 1, ptr %9, align 1
  %127 = load i8, ptr %9, align 1
  %128 = trunc i8 %127 to i1
  %129 = zext i1 %128 to i8
  store i8 %129, ptr %9, align 1
  br label %130

130:                                              ; preds = %126
  br label %131

131:                                              ; preds = %130
  store i32 -1, ptr %7, align 4
  br label %161

132:                                              ; No predecessors!
  br label %133

133:                                              ; preds = %132
  br label %134

134:                                              ; preds = %133, %110
  %135 = load ptr, ptr %5, align 8
  %136 = load ptr, ptr %6, align 8
  %137 = load ptr, ptr %5, align 8
  %138 = getelementptr inbounds %struct.H5S_sel_iter_t, ptr %137, i32 0, i32 5
  %139 = load i64, ptr %138, align 8
  %140 = load ptr, ptr %5, align 8
  %141 = getelementptr inbounds %struct.H5S_sel_iter_t, ptr %140, i32 0, i32 6
  %142 = load i32, ptr %141, align 8
  %143 = call i32 @H5S_select_iter_init(ptr noundef %135, ptr noundef %136, i64 noundef %139, i32 noundef %142)
  %144 = icmp slt i32 %143, 0
  br i1 %144, label %145, label %160

145:                                              ; preds = %134
  br label %146

146:                                              ; preds = %145
  br label %147

147:                                              ; preds = %146
  br label %148

148:                                              ; preds = %147
  %149 = load i64, ptr @H5E_DATASPACE_g, align 8
  %150 = load i64, ptr @H5E_CANTINIT_g, align 8
  %151 = call i32 (ptr, ptr, i32, i64, i64, ptr, ...) @H5E_printf_stack(ptr noundef @.str.1, ptr noundef @__func__.H5Ssel_iter_reset, i32 noundef 3037, i64 noundef %149, i64 noundef %150, ptr noundef @.str.97)
  br label %152

152:                                              ; preds = %148
  store i8 1, ptr %9, align 1
  %153 = load i8, ptr %9, align 1
  %154 = trunc i8 %153 to i1
  %155 = zext i1 %154 to i8
  store i8 %155, ptr %9, align 1
  br label %156

156:                                              ; preds = %152
  br label %157

157:                                              ; preds = %156
  store i32 -1, ptr %7, align 4
  br label %161

158:                                              ; No predecessors!
  br label %159

159:                                              ; preds = %158
  br label %160

160:                                              ; preds = %159, %134
  br label %161

161:                                              ; preds = %160, %157, %131, %107, %88, %67, %43
  %162 = load i8, ptr %8, align 1
  %163 = trunc i8 %162 to i1
  %164 = xor i1 %163, true
  %165 = xor i1 %164, true
  %166 = zext i1 %165 to i32
  %167 = sext i32 %166 to i64
  %168 = icmp ne i64 %167, 0
  br i1 %168, label %169, label %171

169:                                              ; preds = %161
  %170 = call i32 @H5CX_pop(i1 noundef zeroext true)
  store i8 0, ptr %8, align 1
  br label %171

171:                                              ; preds = %169, %161
  %172 = load i8, ptr %9, align 1
  %173 = trunc i8 %172 to i1
  %174 = xor i1 %173, true
  %175 = xor i1 %174, true
  %176 = zext i1 %175 to i32
  %177 = sext i32 %176 to i64
  %178 = icmp ne i64 %177, 0
  br i1 %178, label %179, label %181

179:                                              ; preds = %171
  %180 = call i32 @H5E_dump_api_stack()
  br label %181

181:                                              ; preds = %179, %171
  %182 = load i32, ptr %7, align 4
  ret i32 %182
}