; Function Attrs: nounwind uwtable
define range(i32 -1, 1) i32 @H5Ssel_iter_reset(i64 noundef %0, i64 noundef %1) local_unnamed_addr #3 {
  %3 = load i8, ptr @H5_libinit_g, align 1
  %4 = trunc i8 %3 to i1
  %5 = load i8, ptr @H5_libterm_g, align 1
  %6 = trunc i8 %5 to i1
  %7 = select i1 %4, i1 true, i1 %6
  br i1 %7, label %15, label %8

8:                                                ; preds = %2
  %9 = tail call i32 @H5_init_library() #7
  %10 = icmp slt i32 %9, 0
  br i1 %10, label %11, label %15

11:                                               ; preds = %8
  %12 = load i64, ptr @H5E_FUNC_g, align 8
  %13 = load i64, ptr @H5E_CANTINIT_g, align 8
  %14 = tail call i32 (ptr, ptr, i32, i64, i64, ptr, ...) @H5E_printf_stack(ptr noundef nonnull @.str.1, ptr noundef nonnull @__func__.H5Ssel_iter_reset, i32 noundef 3022, i64 noundef %12, i64 noundef %13, ptr noundef nonnull @.str.2) #7
  br label %.thread28

15:                                               ; preds = %8, %2
  %16 = tail call i32 @H5CX_push() #7
  %17 = icmp slt i32 %16, 0
  br i1 %17, label %18, label %22

18:                                               ; preds = %15
  %19 = load i64, ptr @H5E_FUNC_g, align 8
  %20 = load i64, ptr @H5E_CANTSET_g, align 8
  %21 = tail call i32 (ptr, ptr, i32, i64, i64, ptr, ...) @H5E_printf_stack(ptr noundef nonnull @.str.1, ptr noundef nonnull @__func__.H5Ssel_iter_reset, i32 noundef 3022, i64 noundef %19, i64 noundef %20, ptr noundef nonnull @.str.3) #7
  br label %.thread28

22:                                               ; preds = %15
  %23 = tail call i32 @H5E_clear_stack() #7
  %24 = tail call ptr @H5I_object_verify(i64 noundef %0, i32 noundef 15) #7
  %25 = icmp eq ptr %24, null
  br i1 %25, label %26, label %30

26:                                               ; preds = %22
  %27 = load i64, ptr @H5E_DATASPACE_g, align 8
  %28 = load i64, ptr @H5E_BADTYPE_g, align 8
  %29 = tail call i32 (ptr, ptr, i32, i64, i64, ptr, ...) @H5E_printf_stack(ptr noundef nonnull @.str.1, ptr noundef nonnull @__func__.H5Ssel_iter_reset, i32 noundef 3026, i64 noundef %27, i64 noundef %28, ptr noundef nonnull @.str.88) #7
  br label %.thread34

30:                                               ; preds = %22
  %31 = tail call ptr @H5I_object_verify(i64 noundef %1, i32 noundef 4) #7
  %32 = icmp eq ptr %31, null
  br i1 %32, label %33, label %37

33:                                               ; preds = %30
  %34 = load i64, ptr @H5E_DATASPACE_g, align 8
  %35 = load i64, ptr @H5E_BADTYPE_g, align 8
  %36 = tail call i32 (ptr, ptr, i32, i64, i64, ptr, ...) @H5E_printf_stack(ptr noundef nonnull @.str.1, ptr noundef nonnull @__func__.H5Ssel_iter_reset, i32 noundef 3028, i64 noundef %34, i64 noundef %35, ptr noundef nonnull @.str.4) #7
  br label %.thread34

37:                                               ; preds = %30
  %38 = load ptr, ptr %24, align 8
  %39 = getelementptr inbounds i8, ptr %38, i64 64
  %40 = load ptr, ptr %39, align 8
  %41 = tail call i32 %40(ptr noundef nonnull %24) #7
  %42 = icmp slt i32 %41, 0
  br i1 %42, label %43, label %47

43:                                               ; preds = %37
  %44 = load i64, ptr @H5E_DATASPACE_g, align 8
  %45 = load i64, ptr @H5E_CANTRELEASE_g, align 8
  %46 = tail call i32 (ptr, ptr, i32, i64, i64, ptr, ...) @H5E_printf_stack(ptr noundef nonnull @.str.1, ptr noundef nonnull @__func__.H5Ssel_iter_reset, i32 noundef 3033, i64 noundef %44, i64 noundef %45, ptr noundef nonnull @.str.96) #7
  br label %.thread34

47:                                               ; preds = %37
  %48 = getelementptr inbounds i8, ptr %24, i64 536
  %49 = load i64, ptr %48, align 8
  %50 = getelementptr inbounds i8, ptr %24, i64 544
  %51 = load i32, ptr %50, align 8
  %52 = getelementptr inbounds i8, ptr %31, i64 56
  %53 = load i32, ptr %52, align 8
  %54 = getelementptr inbounds i8, ptr %24, i64 8
  store i32 %53, ptr %54, align 8
  %.not.i = icmp eq i32 %53, 0
  br i1 %.not.i, label %H5S_select_iter_init.exit, label %55

55:                                               ; preds = %47
  %56 = getelementptr inbounds i8, ptr %24, i64 16
  %57 = getelementptr inbounds i8, ptr %31, i64 64
  %58 = load ptr, ptr %57, align 8
  %59 = zext i32 %53 to i64
  %60 = shl nuw nsw i64 %59, 3
  tail call void @llvm.memcpy.p0.p0.i64(ptr nonnull align 8 %56, ptr align 8 %58, i64 %60, i1 false)
  %61 = getelementptr inbounds i8, ptr %24, i64 272
  %62 = getelementptr inbounds i8, ptr %31, i64 96
  %63 = load i32, ptr %52, align 8
  %64 = zext i32 %63 to i64
  %65 = shl nuw nsw i64 %64, 3
  tail call void @llvm.memcpy.p0.p0.i64(ptr nonnull align 8 %61, ptr nonnull align 8 %62, i64 %65, i1 false)
  br label %H5S_select_iter_init.exit

H5S_select_iter_init.exit:                        ; preds = %47, %55
  store i64 %49, ptr %48, align 8
  %66 = getelementptr inbounds i8, ptr %31, i64 80
  %67 = getelementptr inbounds i8, ptr %31, i64 352
  %68 = load i64, ptr %67, align 8
  %69 = getelementptr inbounds i8, ptr %24, i64 528
  store i64 %68, ptr %69, align 8
  store i32 %51, ptr %50, align 8
  %70 = load ptr, ptr %66, align 8
  %71 = getelementptr inbounds i8, ptr %70, i64 160
  %72 = load ptr, ptr %71, align 8
  %73 = tail call i32 %72(ptr noundef nonnull %31, ptr noundef nonnull %24) #7
  %74 = icmp slt i32 %73, 0
  br i1 %74, label %75, label %80

75:                                               ; preds = %H5S_select_iter_init.exit
  %76 = load i64, ptr @H5E_DATASPACE_g, align 8
  %77 = load i64, ptr @H5E_CANTINIT_g, align 8
  %78 = tail call i32 (ptr, ptr, i32, i64, i64, ptr, ...) @H5E_printf_stack(ptr noundef nonnull @.str.1, ptr noundef nonnull @__func__.H5Ssel_iter_reset, i32 noundef 3037, i64 noundef %76, i64 noundef %77, ptr noundef nonnull @.str.97) #7
  br label %.thread34

.thread34:                                        ; preds = %75, %43, %33, %26
  %79 = tail call i32 @H5CX_pop(i1 noundef zeroext true) #7
  br label %.thread28

80:                                               ; preds = %H5S_select_iter_init.exit
  %81 = tail call i32 @H5CX_pop(i1 noundef zeroext true) #7
  br label %83

.thread28:                                        ; preds = %18, %11, %.thread34
  %82 = tail call i32 @H5E_dump_api_stack() #7
  br label %83

83:                                               ; preds = %80, %.thread28
  %.0172331 = phi i32 [ -1, %.thread28 ], [ 0, %80 ]
  ret i32 %.0172331
}